; ModuleID = '24/735.c'
source_filename = "24/735.c"
target datalayout = "e-m:e-p270:32:32-p271:32:32-p272:64:64-i64:64-f80:128-n8:16:32:64-S128"
target triple = "x86_64-pc-linux-gnu"

@.str = private unnamed_addr constant [6 x i8] c"%s\0A%s\00", align 1

; Function Attrs: noinline nounwind uwtable
define dso_local void @main() #0 {
  %1 = alloca [1000 x i8], align 16
  %2 = alloca [30 x i8], align 16
  %3 = alloca [30 x i8], align 16
  %4 = alloca [30 x i8], align 16
  %5 = alloca i32, align 4
  %6 = alloca i32, align 4
  %7 = alloca i32, align 4
  %8 = alloca i32, align 4
  store i32 0, i32* %6, align 4
  store i32 0, i32* %7, align 4
  store i32 30, i32* %8, align 4
  %9 = getelementptr inbounds [1000 x i8], [1000 x i8]* %1, i64 0, i64 0
  %10 = call i32 (i8*, ...) bitcast (i32 (...)* @gets to i32 (i8*, ...)*)(i8* %9)
  store i32 0, i32* %5, align 4
  br label %11

11:                                               ; preds = %69, %0
  %12 = load i32, i32* %5, align 4
  %13 = sext i32 %12 to i64
  %14 = getelementptr inbounds [1000 x i8], [1000 x i8]* %1, i64 0, i64 0
  %15 = call i64 @strlen(i8* %14) #4
  %16 = add i64 %15, 1
  %17 = icmp ult i64 %13, %16
  br i1 %17, label %18, label %72

18:                                               ; preds = %11
  %19 = load i32, i32* %5, align 4
  %20 = sext i32 %19 to i64
  %21 = getelementptr inbounds [1000 x i8], [1000 x i8]* %1, i64 0, i64 %20
  %22 = load i8, i8* %21, align 1
  %23 = load i32, i32* %6, align 4
  %24 = sext i32 %23 to i64
  %25 = getelementptr inbounds [30 x i8], [30 x i8]* %2, i64 0, i64 %24
  store i8 %22, i8* %25, align 1
  %26 = load i32, i32* %6, align 4
  %27 = add nsw i32 %26, 1
  store i32 %27, i32* %6, align 4
  %28 = load i32, i32* %5, align 4
  %29 = sext i32 %28 to i64
  %30 = getelementptr inbounds [1000 x i8], [1000 x i8]* %1, i64 0, i64 %29
  %31 = load i8, i8* %30, align 1
  %32 = sext i8 %31 to i32
  %33 = icmp eq i32 %32, 32
  br i1 %33, label %41, label %34

34:                                               ; preds = %18
  %35 = load i32, i32* %5, align 4
  %36 = sext i32 %35 to i64
  %37 = getelementptr inbounds [1000 x i8], [1000 x i8]* %1, i64 0, i64 %36
  %38 = load i8, i8* %37, align 1
  %39 = sext i8 %38 to i32
  %40 = icmp eq i32 %39, 0
  br i1 %40, label %41, label %68

41:                                               ; preds = %34, %18
  %42 = load i32, i32* %6, align 4
  %43 = sub nsw i32 %42, 1
  %44 = sext i32 %43 to i64
  %45 = getelementptr inbounds [30 x i8], [30 x i8]* %2, i64 0, i64 %44
  store i8 0, i8* %45, align 1
  %46 = load i32, i32* %6, align 4
  %47 = sub nsw i32 %46, 1
  %48 = load i32, i32* %7, align 4
  %49 = icmp sgt i32 %47, %48
  br i1 %49, label %50, label %56

50:                                               ; preds = %41
  %51 = load i32, i32* %6, align 4
  %52 = sub nsw i32 %51, 1
  store i32 %52, i32* %7, align 4
  %53 = getelementptr inbounds [30 x i8], [30 x i8]* %3, i64 0, i64 0
  %54 = getelementptr inbounds [30 x i8], [30 x i8]* %2, i64 0, i64 0
  %55 = call i8* @strcpy(i8* %53, i8* %54) #5
  br label %56

56:                                               ; preds = %50, %41
  %57 = load i32, i32* %6, align 4
  %58 = sub nsw i32 %57, 1
  %59 = load i32, i32* %8, align 4
  %60 = icmp slt i32 %58, %59
  br i1 %60, label %61, label %67

61:                                               ; preds = %56
  %62 = load i32, i32* %6, align 4
  %63 = sub nsw i32 %62, 1
  store i32 %63, i32* %8, align 4
  %64 = getelementptr inbounds [30 x i8], [30 x i8]* %4, i64 0, i64 0
  %65 = getelementptr inbounds [30 x i8], [30 x i8]* %2, i64 0, i64 0
  %66 = call i8* @strcpy(i8* %64, i8* %65) #5
  br label %67

67:                                               ; preds = %61, %56
  store i32 0, i32* %6, align 4
  br label %68

68:                                               ; preds = %67, %34
  br label %69

69:                                               ; preds = %68
  %70 = load i32, i32* %5, align 4
  %71 = add nsw i32 %70, 1
  store i32 %71, i32* %5, align 4
  br label %11

72:                                               ; preds = %11
  %73 = getelementptr inbounds [30 x i8], [30 x i8]* %3, i64 0, i64 0
  %74 = getelementptr inbounds [30 x i8], [30 x i8]* %4, i64 0, i64 0
  %75 = call i32 (i8*, ...) @printf(i8* getelementptr inbounds ([6 x i8], [6 x i8]* @.str, i64 0, i64 0), i8* %73, i8* %74)
  ret void
}

declare dso_local i32 @gets(...) #1

; Function Attrs: nounwind readonly
declare dso_local i64 @strlen(i8*) #2

; Function Attrs: nounwind
declare dso_local i8* @strcpy(i8*, i8*) #3

declare dso_local i32 @printf(i8*, ...) #1


!llvm.module.flags = !{!0}
!llvm.ident = !{!1}

!0 = !{i32 1, !"wchar_size", i32 4}
!1 = !{!"clang version 10.0.0-4ubuntu1 "}
